target datalayout = "e-m:e-p270:32:32-p271:32:32-p272:64:64-i64:64-i128:128-f80:128-n8:16:32:64-S128"
target triple = "x86_64-unknown-linux-gnu"

%"class.openvdb::v11_0::math::Vec3" = type { %"class.openvdb::v11_0::math::Tuple" }
%"class.openvdb::v11_0::math::Tuple" = type { [3 x double] }
%"class.openvdb::v11_0::math::BBox" = type { %"class.openvdb::v11_0::math::Vec3", %"class.openvdb::v11_0::math::Vec3" }
%"class.openvdb::v11_0::math::Coord" = type { %"struct.std::array" }
%"struct.std::array" = type { [3 x i32] }
%"class.openvdb::v11_0::math::CoordBBox" = type { %"class.openvdb::v11_0::math::Coord", %"class.openvdb::v11_0::math::Coord" }

; Function Attrs: mustprogress nounwind uwtable
define linkonce_odr noundef nonnull align 4 dereferenceable(4) ptr @_ZNSt14__array_traitsIiLm3EE6_S_refERA3_Kim(ptr noundef nonnull align 4 dereferenceable(12) %__t, i64 noundef %__n) #5 comdat align 2 {
entry:
  %__t.addr = alloca ptr, align 8
  %__n.addr = alloca i64, align 8
  store ptr %__t, ptr %__t.addr, align 8
  store i64 %__n, ptr %__n.addr, align 8
  %0 = load ptr, ptr %__t.addr, align 8
  %1 = load i64, ptr %__n.addr, align 8
  %arrayidx = getelementptr inbounds [3 x i32], ptr %0, i64 0, i64 %1
  ret ptr %arrayidx
}

; Function Attrs: mustprogress nounwind uwtable
define linkonce_odr void @_ZN7openvdb5v11_04math4Vec3IdEC2Eddd(ptr noundef nonnull align 8 dereferenceable(24) %this, double noundef %x, double noundef %y, double noundef %z) unnamed_addr #5 comdat align 2 {
entry:
  %this.addr = alloca ptr, align 8
  %x.addr = alloca double, align 8
  %y.addr = alloca double, align 8
  %z.addr = alloca double, align 8
  store ptr %this, ptr %this.addr, align 8
  store double %x, ptr %x.addr, align 8
  store double %y, ptr %y.addr, align 8
  store double %z, ptr %z.addr, align 8
  %this1 = load ptr, ptr %this.addr, align 8
  %0 = load double, ptr %x.addr, align 8
  %mm = getelementptr inbounds %"class.openvdb::v11_0::math::Tuple", ptr %this1, i32 0, i32 0
  %arrayidx = getelementptr inbounds [3 x double], ptr %mm, i64 0, i64 0
  store double %0, ptr %arrayidx, align 8
  %1 = load double, ptr %y.addr, align 8
  %mm2 = getelementptr inbounds %"class.openvdb::v11_0::math::Tuple", ptr %this1, i32 0, i32 0
  %arrayidx3 = getelementptr inbounds [3 x double], ptr %mm2, i64 0, i64 1
  store double %1, ptr %arrayidx3, align 8
  %2 = load double, ptr %z.addr, align 8
  %mm4 = getelementptr inbounds %"class.openvdb::v11_0::math::Tuple", ptr %this1, i32 0, i32 0
  %arrayidx5 = getelementptr inbounds [3 x double], ptr %mm4, i64 0, i64 2
  store double %2, ptr %arrayidx5, align 8
  ret void
}

; Function Attrs: mustprogress nounwind uwtable
define linkonce_odr noundef nonnull align 4 dereferenceable(4) ptr @_ZNKSt5arrayIiLm3EEixEm(ptr noundef nonnull align 4 dereferenceable(12) %this, i64 noundef %__n) #5 comdat align 2 {
entry:
  %this.addr = alloca ptr, align 8
  %__n.addr = alloca i64, align 8
  store ptr %this, ptr %this.addr, align 8
  store i64 %__n, ptr %__n.addr, align 8
  %this1 = load ptr, ptr %this.addr, align 8
  %_M_elems = getelementptr inbounds %"struct.std::array", ptr %this1, i32 0, i32 0
  %0 = load i64, ptr %__n.addr, align 8
  %call = call noundef nonnull align 4 dereferenceable(4) ptr @_ZNSt14__array_traitsIiLm3EE6_S_refERA3_Kim(ptr noundef nonnull align 4 dereferenceable(12) %_M_elems, i64 noundef %0) #3
  ret ptr %call
}

; Function Attrs: mustprogress nounwind uwtable
define linkonce_odr void @_ZN7openvdb5v11_04math4BBoxINS1_4Vec3IdEEEC2ERKS4_S7_(ptr noundef nonnull align 8 dereferenceable(48) %this, ptr noundef nonnull align 8 dereferenceable(24) %xyzMin, ptr noundef nonnull align 8 dereferenceable(24) %xyzMax) unnamed_addr #5 comdat align 2 {
entry:
  %this.addr = alloca ptr, align 8
  %xyzMin.addr = alloca ptr, align 8
  %xyzMax.addr = alloca ptr, align 8
  store ptr %this, ptr %this.addr, align 8
  store ptr %xyzMin, ptr %xyzMin.addr, align 8
  store ptr %xyzMax, ptr %xyzMax.addr, align 8
  %this1 = load ptr, ptr %this.addr, align 8
  %mMin = getelementptr inbounds %"class.openvdb::v11_0::math::BBox", ptr %this1, i32 0, i32 0
  %0 = load ptr, ptr %xyzMin.addr, align 8
  call void @llvm.memcpy.p0.p0.i64(ptr align 8 %mMin, ptr align 8 %0, i64 24, i1 false)
  %mMax = getelementptr inbounds %"class.openvdb::v11_0::math::BBox", ptr %this1, i32 0, i32 1
  %1 = load ptr, ptr %xyzMax.addr, align 8
  call void @llvm.memcpy.p0.p0.i64(ptr align 8 %mMax, ptr align 8 %1, i64 24, i1 false)
  ret void
}

; Function Attrs: mustprogress nounwind uwtable
define linkonce_odr noundef nonnull align 4 dereferenceable(12) ptr @_ZNK7openvdb5v11_04math9CoordBBox3maxEv(ptr noundef nonnull align 4 dereferenceable(24) %this) #5 comdat align 2 {
entry:
  %this.addr = alloca ptr, align 8
  store ptr %this, ptr %this.addr, align 8
  %this1 = load ptr, ptr %this.addr, align 8
  %mMax = getelementptr inbounds %"class.openvdb::v11_0::math::CoordBBox", ptr %this1, i32 0, i32 1
  ret ptr %mMax
}

; Function Attrs: mustprogress uwtable
define linkonce_odr void @_ZNK7openvdb5v11_04math5Coord7asVec3dEv(ptr noalias sret(%"class.openvdb::v11_0::math::Vec3") align 8 %agg.result, ptr noundef nonnull align 4 dereferenceable(12) %this) #4 comdat align 2 {
entry:
  %this.addr = alloca ptr, align 8
  store ptr %this, ptr %this.addr, align 8
  %this1 = load ptr, ptr %this.addr, align 8
  %mVec = getelementptr inbounds %"class.openvdb::v11_0::math::Coord", ptr %this1, i32 0, i32 0
  %call = call noundef nonnull align 4 dereferenceable(4) ptr @_ZNKSt5arrayIiLm3EEixEm(ptr noundef nonnull align 4 dereferenceable(12) %mVec, i64 noundef 0) #3
  %0 = load i32, ptr %call, align 4
  %conv = sitofp i32 %0 to double
  %mVec2 = getelementptr inbounds %"class.openvdb::v11_0::math::Coord", ptr %this1, i32 0, i32 0
  %call3 = call noundef nonnull align 4 dereferenceable(4) ptr @_ZNKSt5arrayIiLm3EEixEm(ptr noundef nonnull align 4 dereferenceable(12) %mVec2, i64 noundef 1) #3
  %1 = load i32, ptr %call3, align 4
  %conv4 = sitofp i32 %1 to double
  %mVec5 = getelementptr inbounds %"class.openvdb::v11_0::math::Coord", ptr %this1, i32 0, i32 0
  %call6 = call noundef nonnull align 4 dereferenceable(4) ptr @_ZNKSt5arrayIiLm3EEixEm(ptr noundef nonnull align 4 dereferenceable(12) %mVec5, i64 noundef 2) #3
  %2 = load i32, ptr %call6, align 4
  %conv7 = sitofp i32 %2 to double
  call void @_ZN7openvdb5v11_04math4Vec3IdEC2Eddd(ptr noundef nonnull align 8 dereferenceable(24) %agg.result, double noundef %conv, double noundef %conv4, double noundef %conv7)
  ret void
}

; Function Attrs: mustprogress nounwind uwtable
define linkonce_odr noundef nonnull align 4 dereferenceable(12) ptr @_ZNK7openvdb5v11_04math9CoordBBox3minEv(ptr noundef nonnull align 4 dereferenceable(24) %this) #5 comdat align 2 {
entry:
  %this.addr = alloca ptr, align 8
  store ptr %this, ptr %this.addr, align 8
  %this1 = load ptr, ptr %this.addr, align 8
  %mMin = getelementptr inbounds %"class.openvdb::v11_0::math::CoordBBox", ptr %this1, i32 0, i32 0
  ret ptr %mMin
}

; Function Attrs: mustprogress uwtable
define void @_ZNK7openvdb5v11_04math9Transform12indexToWorldERKNS1_9CoordBBoxE(ptr noalias sret(%"class.openvdb::v11_0::math::BBox") align 8 %agg.result, ptr noundef nonnull align 8 dereferenceable(16) %this, ptr noundef nonnull align 4 dereferenceable(24) %indexBBox) #4 align 2 {
entry:
  %this.addr = alloca ptr, align 8
  %indexBBox.addr = alloca ptr, align 8
  %ref.tmp = alloca %"class.openvdb::v11_0::math::BBox", align 8
  %ref.tmp2 = alloca %"class.openvdb::v11_0::math::Vec3", align 8
  %ref.tmp3 = alloca %"class.openvdb::v11_0::math::Vec3", align 8
  store ptr %this, ptr %this.addr, align 8
  store ptr %indexBBox, ptr %indexBBox.addr, align 8
  %this1 = load ptr, ptr %this.addr, align 8
  %0 = load ptr, ptr %indexBBox.addr, align 8
  %call = call noundef nonnull align 4 dereferenceable(12) ptr @_ZNK7openvdb5v11_04math9CoordBBox3minEv(ptr noundef nonnull align 4 dereferenceable(24) %0)
  call void @_ZNK7openvdb5v11_04math5Coord7asVec3dEv(ptr sret(%"class.openvdb::v11_0::math::Vec3") align 8 %ref.tmp2, ptr noundef nonnull align 4 dereferenceable(12) %call)
  %1 = load ptr, ptr %indexBBox.addr, align 8
  %call4 = call noundef nonnull align 4 dereferenceable(12) ptr @_ZNK7openvdb5v11_04math9CoordBBox3maxEv(ptr noundef nonnull align 4 dereferenceable(24) %1)
  call void @_ZNK7openvdb5v11_04math5Coord7asVec3dEv(ptr sret(%"class.openvdb::v11_0::math::Vec3") align 8 %ref.tmp3, ptr noundef nonnull align 4 dereferenceable(12) %call4)
  call void @_ZN7openvdb5v11_04math4BBoxINS1_4Vec3IdEEEC2ERKS4_S7_(ptr noundef nonnull align 8 dereferenceable(48) %ref.tmp, ptr noundef nonnull align 8 dereferenceable(24) %ref.tmp2, ptr noundef nonnull align 8 dereferenceable(24) %ref.tmp3)
  call void @_ZNK7openvdb5v11_04math9Transform12indexToWorldERKNS1_4BBoxINS1_4Vec3IdEEEE(ptr sret(%"class.openvdb::v11_0::math::BBox") align 8 %agg.result, ptr noundef nonnull align 8 dereferenceable(16) %this1, ptr noundef nonnull align 8 dereferenceable(48) %ref.tmp)
  ret void
}