; Function Attrs: mustprogress uwtable
define void @_ZNK7openvdb5v11_04math9Transform12indexToWorldERKNS1_9CoordBBoxE(ptr noalias nocapture sret(%"class.openvdb::v11_0::math::BBox") align 8 %agg.result, ptr nocapture noundef nonnull readonly align 8 dereferenceable(16) %this, ptr nocapture noundef nonnull readonly align 4 dereferenceable(24) %indexBBox) local_unnamed_addr #3 align 2 {
entry:
  %ref.tmp = alloca %"class.openvdb::v11_0::math::BBox", align 16
  %arrayidx.i.i1.i = getelementptr inbounds i8, ptr %indexBBox, i64 8
  %arrayidx.i.i.i3 = getelementptr inbounds i8, ptr %indexBBox, i64 16
  %0 = load <2 x i32>, ptr %indexBBox, align 4, !noalias !146
  %1 = sitofp <2 x i32> %0 to <2 x double>
  store <2 x double> %1, ptr %ref.tmp, align 16
  %ref.tmp2.sroa.3.0.ref.tmp.sroa_idx = getelementptr inbounds i8, ptr %ref.tmp, i64 16
  %2 = load <2 x i32>, ptr %arrayidx.i.i1.i, align 4, !noalias !46
  %3 = sitofp <2 x i32> %2 to <2 x double>
  store <2 x double> %3, ptr %ref.tmp2.sroa.3.0.ref.tmp.sroa_idx, align 16
  %ref.tmp3.sroa.2.0.mMax.i9.sroa_idx = getelementptr inbounds i8, ptr %ref.tmp, i64 32
  %4 = load <2 x i32>, ptr %arrayidx.i.i.i3, align 4, !noalias !149
  %5 = sitofp <2 x i32> %4 to <2 x double>
  store <2 x double> %5, ptr %ref.tmp3.sroa.2.0.mMax.i9.sroa_idx, align 16
  call void @_ZNK7openvdb5v11_04math9Transform12indexToWorldERKNS1_4BBoxINS1_4Vec3IdEEEE(ptr sret(%"class.openvdb::v11_0::math::BBox") align 8 %agg.result, ptr noundef nonnull align 8 dereferenceable(16) %this, ptr noundef nonnull align 8 dereferenceable(48) %ref.tmp)
  ret void
}